target datalayout = "e-m:e-p270:32:32-p271:32:32-p272:64:64-i64:64-i128:128-f80:128-n8:16:32:64-S128"
target triple = "x86_64-pc-linux-gnu"

%class.PhaseIdealLoop = type <{ %class.PhaseTransform, %class.Node_List, ptr, ptr, ptr, i32, [4 x i8], ptr, i8, [7 x i8], %class.Node_List, %class.Node_List, %class.GrowableArray, i32, i32, ptr, ptr, ptr, i32, i8, [3 x i8], i32, i8, [3 x i8] }>
%class.PhaseTransform = type { ptr, %class.Phase }
%class.Phase = type { i32, ptr }
%class.Node_List = type <{ %class.Node_Array, i32, [4 x i8] }>
%class.Node_Array = type { ptr, i32, ptr }
%class.GrowableArray = type { %class.GrowableArrayWithAllocator, %class.GrowableArrayMetadata }
%class.GrowableArrayWithAllocator = type { %class.GrowableArrayView }
%class.GrowableArrayView = type { %class.GrowableArrayBase, ptr }
%class.GrowableArrayBase = type { i32, i32 }
%class.GrowableArrayMetadata = type { i64 }
%class.IdealLoopTree = type <{ ptr, ptr, ptr, ptr, ptr, ptr, i32, i32, %class.Node_List, i16, i8, [5 x i8], ptr, ptr, i8, [7 x i8] }>
%class.Node = type <{ ptr, ptr, ptr, i32, i32, i32, i32, i32, i32, i32, [4 x i8] }>

; Function Attrs: mustprogress nounwind uwtable
define linkonce_odr hidden noundef zeroext i1 @_ZNK4Node14is_MultiBranchEv(ptr noundef nonnull align 8 dereferenceable(52) %0) #1 comdat align 2 {
  %2 = alloca ptr, align 8
  store ptr %0, ptr %2, align 8
  %3 = load ptr, ptr %2, align 8
  %4 = getelementptr inbounds %class.Node, ptr %3, i32 0, i32 8
  %5 = load i32, ptr %4, align 4
  %6 = and i32 %5, 7
  %7 = icmp eq i32 %6, 5
  ret i1 %7
}

; Function Attrs: mustprogress nounwind uwtable
define linkonce_odr hidden noundef ptr @_ZNK10Node_ArrayixEj(ptr noundef nonnull align 8 dereferenceable(24) %0, i32 noundef %1) #1 comdat align 2 {
  %3 = alloca ptr, align 8
  %4 = alloca i32, align 4
  store ptr %0, ptr %3, align 8
  store i32 %1, ptr %4, align 4
  %5 = load ptr, ptr %3, align 8
  %6 = load i32, ptr %4, align 4
  %7 = getelementptr inbounds %class.Node_Array, ptr %5, i32 0, i32 1
  %8 = load i32, ptr %7, align 8
  %9 = icmp ult i32 %6, %8
  br i1 %9, label %10, label %17

10:                                               ; preds = %2
  %11 = getelementptr inbounds %class.Node_Array, ptr %5, i32 0, i32 2
  %12 = load ptr, ptr %11, align 8
  %13 = load i32, ptr %4, align 4
  %14 = zext i32 %13 to i64
  %15 = getelementptr inbounds ptr, ptr %12, i64 %14
  %16 = load ptr, ptr %15, align 8
  br label %18

17:                                               ; preds = %2
  br label %18

18:                                               ; preds = %17, %10
  %19 = phi ptr [ %16, %10 ], [ null, %17 ]
  ret ptr %19
}

; Function Attrs: mustprogress nounwind uwtable
define linkonce_odr hidden noundef ptr @_ZNK14PhaseIdealLoop19find_non_split_ctrlEP4Node(ptr noundef nonnull align 8 dereferenceable(237) %0, ptr noundef %1) #1 comdat align 2 {
  %3 = alloca ptr, align 8
  %4 = alloca ptr, align 8
  store ptr %0, ptr %3, align 8
  store ptr %1, ptr %4, align 8
  %5 = load ptr, ptr %4, align 8
  %6 = icmp ne ptr %5, null
  br i1 %6, label %7, label %14

7:                                                ; preds = %2
  %8 = load ptr, ptr %4, align 8
  %9 = call noundef zeroext i1 @_ZNK4Node14is_MultiBranchEv(ptr noundef nonnull align 8 dereferenceable(52) %8)
  br i1 %9, label %10, label %13

10:                                               ; preds = %7
  %11 = load ptr, ptr %4, align 8
  %12 = call noundef ptr @_ZNK4Node2inEj(ptr noundef nonnull align 8 dereferenceable(52) %11, i32 noundef 0)
  store ptr %12, ptr %4, align 8
  br label %13

13:                                               ; preds = %10, %7
  br label %14

14:                                               ; preds = %13, %2
  %15 = load ptr, ptr %4, align 8
  ret ptr %15
}

; Function Attrs: mustprogress nounwind uwtable
define linkonce_odr hidden noundef ptr @_ZNK14PhaseIdealLoop25get_ctrl_no_update_helperEPK4Node(ptr noundef nonnull align 8 dereferenceable(237) %0, ptr noundef %1) #1 comdat align 2 {
  %3 = alloca ptr, align 8
  %4 = alloca ptr, align 8
  store ptr %0, ptr %3, align 8
  store ptr %1, ptr %4, align 8
  %5 = load ptr, ptr %3, align 8
  %6 = getelementptr inbounds %class.PhaseIdealLoop, ptr %5, i32 0, i32 1
  %7 = load ptr, ptr %4, align 8
  %8 = getelementptr inbounds %class.Node, ptr %7, i32 0, i32 7
  %9 = load i32, ptr %8, align 8
  %10 = call noundef ptr @_ZNK10Node_ArrayixEj(ptr noundef nonnull align 8 dereferenceable(24) %6, i32 noundef %9)
  %11 = ptrtoint ptr %10 to i64
  %12 = and i64 %11, -2
  %13 = inttoptr i64 %12 to ptr
  ret ptr %13
}

; Function Attrs: mustprogress nounwind uwtable
define linkonce_odr hidden void @_ZN10Node_Array3mapEjP4Node(ptr noundef nonnull align 8 dereferenceable(24) %0, i32 noundef %1, ptr noundef %2) #1 comdat align 2 {
  %4 = alloca ptr, align 8
  %5 = alloca i32, align 4
  %6 = alloca ptr, align 8
  store ptr %0, ptr %4, align 8
  store i32 %1, ptr %5, align 4
  store ptr %2, ptr %6, align 8
  %7 = load ptr, ptr %4, align 8
  %8 = load i32, ptr %5, align 4
  %9 = getelementptr inbounds %class.Node_Array, ptr %7, i32 0, i32 1
  %10 = load i32, ptr %9, align 8
  %11 = icmp uge i32 %8, %10
  br i1 %11, label %12, label %14

12:                                               ; preds = %3
  %13 = load i32, ptr %5, align 4
  call void @_ZN10Node_Array4growEj(ptr noundef nonnull align 8 dereferenceable(24) %7, i32 noundef %13)
  br label %14

14:                                               ; preds = %12, %3
  %15 = load ptr, ptr %6, align 8
  %16 = getelementptr inbounds %class.Node_Array, ptr %7, i32 0, i32 2
  %17 = load ptr, ptr %16, align 8
  %18 = load i32, ptr %5, align 4
  %19 = zext i32 %18 to i64
  %20 = getelementptr inbounds ptr, ptr %17, i64 %19
  store ptr %15, ptr %20, align 8
  ret void
}

; Function Attrs: mustprogress nounwind uwtable
define linkonce_odr hidden noundef ptr @_ZNK14PhaseIdealLoop18get_ctrl_no_updateEPK4Node(ptr noundef nonnull align 8 dereferenceable(237) %0, ptr noundef %1) #1 comdat align 2 {
  %3 = alloca ptr, align 8
  %4 = alloca ptr, align 8
  %5 = alloca ptr, align 8
  store ptr %0, ptr %3, align 8
  store ptr %1, ptr %4, align 8
  %6 = load ptr, ptr %3, align 8
  %7 = load ptr, ptr %4, align 8
  %8 = call noundef ptr @_ZNK14PhaseIdealLoop25get_ctrl_no_update_helperEPK4Node(ptr noundef nonnull align 8 dereferenceable(237) %6, ptr noundef %7)
  store ptr %8, ptr %5, align 8
  %9 = load ptr, ptr %5, align 8
  %10 = call noundef ptr @_ZNK4Node2inEj(ptr noundef nonnull align 8 dereferenceable(52) %9, i32 noundef 0)
  %11 = icmp ne ptr %10, null
  br i1 %11, label %24, label %12

12:                                               ; preds = %2
  br label %13

13:                                               ; preds = %16, %12
  %14 = load ptr, ptr %5, align 8
  %15 = call noundef ptr @_ZNK14PhaseIdealLoop25get_ctrl_no_update_helperEPK4Node(ptr noundef nonnull align 8 dereferenceable(237) %6, ptr noundef %14)
  store ptr %15, ptr %5, align 8
  br label %16

16:                                               ; preds = %13
  %17 = load ptr, ptr %5, align 8
  %18 = call noundef ptr @_ZNK4Node2inEj(ptr noundef nonnull align 8 dereferenceable(52) %17, i32 noundef 0)
  %19 = icmp ne ptr %18, null
  %20 = xor i1 %19, true
  br i1 %20, label %13, label %21, !llvm.loop !31

21:                                               ; preds = %16
  %22 = load ptr, ptr %5, align 8
  %23 = call noundef ptr @_ZNK14PhaseIdealLoop19find_non_split_ctrlEP4Node(ptr noundef nonnull align 8 dereferenceable(237) %6, ptr noundef %22)
  store ptr %23, ptr %5, align 8
  br label %24

24:                                               ; preds = %21, %2
  %25 = load ptr, ptr %5, align 8
  ret ptr %25
}

; Function Attrs: mustprogress nounwind uwtable
define linkonce_odr hidden noundef ptr @_ZN14PhaseIdealLoop8get_ctrlEPK4Node(ptr noundef nonnull align 8 dereferenceable(237) %0, ptr noundef %1) #1 comdat align 2 {
  %3 = alloca ptr, align 8
  %4 = alloca ptr, align 8
  %5 = alloca ptr, align 8
  store ptr %0, ptr %3, align 8
  store ptr %1, ptr %4, align 8
  %6 = load ptr, ptr %3, align 8
  %7 = load ptr, ptr %4, align 8
  %8 = call noundef ptr @_ZNK14PhaseIdealLoop18get_ctrl_no_updateEPK4Node(ptr noundef nonnull align 8 dereferenceable(237) %6, ptr noundef %7)
  store ptr %8, ptr %5, align 8
  %9 = getelementptr inbounds %class.PhaseIdealLoop, ptr %6, i32 0, i32 1
  %10 = load ptr, ptr %4, align 8
  %11 = getelementptr inbounds %class.Node, ptr %10, i32 0, i32 7
  %12 = load i32, ptr %11, align 8
  %13 = load ptr, ptr %5, align 8
  %14 = ptrtoint ptr %13 to i64
  %15 = add nsw i64 %14, 1
  %16 = inttoptr i64 %15 to ptr
  call void @_ZN10Node_Array3mapEjP4Node(ptr noundef nonnull align 8 dereferenceable(24) %9, i32 noundef %12, ptr noundef %16)
  %17 = load ptr, ptr %5, align 8
  ret ptr %17
}

; Function Attrs: mustprogress nounwind uwtable
define linkonce_odr hidden noundef ptr @_ZNK4Node2inEj(ptr noundef nonnull align 8 dereferenceable(52) %0, i32 noundef %1) #1 comdat align 2 {
  %3 = alloca ptr, align 8
  %4 = alloca i32, align 4
  store ptr %0, ptr %3, align 8
  store i32 %1, ptr %4, align 4
  %5 = load ptr, ptr %3, align 8
  %6 = getelementptr inbounds %class.Node, ptr %5, i32 0, i32 1
  %7 = load ptr, ptr %6, align 8
  %8 = load i32, ptr %4, align 4
  %9 = zext i32 %8 to i64
  %10 = getelementptr inbounds ptr, ptr %7, i64 %9
  %11 = load ptr, ptr %10, align 8
  ret ptr %11
}

; Function Attrs: mustprogress nounwind uwtable
define linkonce_odr hidden noundef zeroext i1 @_ZNK4Node6is_topEv(ptr noundef nonnull align 8 dereferenceable(52) %0) #1 comdat align 2 {
  %2 = alloca ptr, align 8
  store ptr %0, ptr %2, align 8
  %3 = load ptr, ptr %2, align 8
  %4 = getelementptr inbounds %class.Node, ptr %3, i32 0, i32 2
  %5 = load ptr, ptr %4, align 8
  %6 = icmp eq ptr %5, null
  ret i1 %6
}

; Function Attrs: mustprogress nounwind uwtable
define linkonce_odr hidden noundef ptr @_ZN13IdealLoopTree4tailEv(ptr noundef nonnull align 8 dereferenceable(113) %0) #1 comdat align 2 {
  %2 = alloca ptr, align 8
  store ptr %0, ptr %2, align 8
  %3 = load ptr, ptr %2, align 8
  %4 = getelementptr inbounds %class.IdealLoopTree, ptr %3, i32 0, i32 4
  %5 = load ptr, ptr %4, align 8
  %6 = call noundef ptr @_ZNK4Node2inEj(ptr noundef nonnull align 8 dereferenceable(52) %5, i32 noundef 0)
  %7 = icmp eq ptr %6, null
  br i1 %7, label %8, label %15

8:                                                ; preds = %1
  %9 = getelementptr inbounds %class.IdealLoopTree, ptr %3, i32 0, i32 5
  %10 = load ptr, ptr %9, align 8
  %11 = getelementptr inbounds %class.IdealLoopTree, ptr %3, i32 0, i32 4
  %12 = load ptr, ptr %11, align 8
  %13 = call noundef ptr @_ZN14PhaseIdealLoop8get_ctrlEPK4Node(ptr noundef nonnull align 8 dereferenceable(237) %10, ptr noundef %12)
  %14 = getelementptr inbounds %class.IdealLoopTree, ptr %3, i32 0, i32 4
  store ptr %13, ptr %14, align 8
  br label %15

15:                                               ; preds = %8, %1
  %16 = getelementptr inbounds %class.IdealLoopTree, ptr %3, i32 0, i32 4
  %17 = load ptr, ptr %16, align 8
  ret ptr %17
}

; Function Attrs: mustprogress nounwind uwtable
define linkonce_odr hidden noundef zeroext i1 @_ZNK4Node22is_OuterStripMinedLoopEv(ptr noundef nonnull align 8 dereferenceable(52) %0) #1 comdat align 2 {
  %2 = alloca ptr, align 8
  store ptr %0, ptr %2, align 8
  %3 = load ptr, ptr %2, align 8
  %4 = getelementptr inbounds %class.Node, ptr %3, i32 0, i32 8
  %5 = load i32, ptr %4, align 4
  %6 = and i32 %5, 1023
  %7 = icmp eq i32 %6, 608
  ret i1 %7
}

; Function Attrs: mustprogress nounwind uwtable
define linkonce_odr hidden noundef zeroext i1 @_ZNK4Node7is_LoopEv(ptr noundef nonnull align 8 dereferenceable(52) %0) #1 comdat align 2 {
  %2 = alloca ptr, align 8
  store ptr %0, ptr %2, align 8
  %3 = load ptr, ptr %2, align 8
  %4 = getelementptr inbounds %class.Node, ptr %3, i32 0, i32 8
  %5 = load i32, ptr %4, align 4
  %6 = and i32 %5, 127
  %7 = icmp eq i32 %6, 96
  ret i1 %7
}

; Function Attrs: mustprogress nounwind uwtable
define linkonce_odr hidden noundef zeroext i1 @_ZNK4Node7is_RootEv(ptr noundef nonnull align 8 dereferenceable(52) %0) #1 comdat align 2 {
  %2 = alloca ptr, align 8
  store ptr %0, ptr %2, align 8
  %3 = load ptr, ptr %2, align 8
  %4 = getelementptr inbounds %class.Node, ptr %3, i32 0, i32 8
  %5 = load i32, ptr %4, align 4
  %6 = and i32 %5, 255
  %7 = icmp eq i32 %6, 224
  ret i1 %7
}

; Function Attrs: mustprogress nounwind uwtable
define hidden noundef zeroext i1 @_ZN13IdealLoopTree26can_apply_loop_predicationEv(ptr noundef nonnull align 8 dereferenceable(113) %0) #1 align 2 {
  %2 = alloca ptr, align 8
  store ptr %0, ptr %2, align 8
  %3 = load ptr, ptr %2, align 8
  %4 = getelementptr inbounds %class.IdealLoopTree, ptr %3, i32 0, i32 3
  %5 = load ptr, ptr %4, align 8
  %6 = call noundef zeroext i1 @_ZNK4Node7is_RootEv(ptr noundef nonnull align 8 dereferenceable(52) %5)
  br i1 %6, label %24, label %7

7:                                                ; preds = %1
  %8 = getelementptr inbounds %class.IdealLoopTree, ptr %3, i32 0, i32 3
  %9 = load ptr, ptr %8, align 8
  %10 = call noundef zeroext i1 @_ZNK4Node7is_LoopEv(ptr noundef nonnull align 8 dereferenceable(52) %9)
  br i1 %10, label %11, label %24

11:                                               ; preds = %7
  %12 = getelementptr inbounds %class.IdealLoopTree, ptr %3, i32 0, i32 3
  %13 = load ptr, ptr %12, align 8
  %14 = call noundef zeroext i1 @_ZNK4Node22is_OuterStripMinedLoopEv(ptr noundef nonnull align 8 dereferenceable(52) %13)
  br i1 %14, label %24, label %15

15:                                               ; preds = %11
  %16 = getelementptr inbounds %class.IdealLoopTree, ptr %3, i32 0, i32 10
  %17 = load i8, ptr %16, align 2
  %18 = and i8 %17, 1
  %19 = icmp ne i8 %18, 0
  br i1 %19, label %24, label %20

20:                                               ; preds = %15
  %21 = call noundef ptr @_ZN13IdealLoopTree4tailEv(ptr noundef nonnull align 8 dereferenceable(113) %3)
  %22 = call noundef zeroext i1 @_ZNK4Node6is_topEv(ptr noundef nonnull align 8 dereferenceable(52) %21)
  %23 = xor i1 %22, true
  br label %24

24:                                               ; preds = %20, %15, %11, %7, %1
  %25 = phi i1 [ false, %15 ], [ false, %11 ], [ false, %7 ], [ false, %1 ], [ %23, %20 ]
  ret i1 %25
}