; Function Attrs: mustprogress nounwind uwtable
define hidden noundef zeroext i1 @_ZN13IdealLoopTree26can_apply_loop_predicationEv(ptr nocapture noundef nonnull align 8 dereferenceable(113) %0) local_unnamed_addr #0 align 2 {
  %2 = getelementptr inbounds i8, ptr %0, i64 24
  %3 = load ptr, ptr %2, align 8
  %4 = getelementptr inbounds i8, ptr %3, i64 44
  %5 = load i32, ptr %4, align 4
  %6 = and i32 %5, 255
  %7 = icmp eq i32 %6, 224
  %8 = and i32 %5, 127
  %9 = icmp ne i32 %8, 96
  %or.cond.not6 = or i1 %7, %9
  %10 = and i32 %5, 1023
  %11 = icmp eq i32 %10, 608
  %or.cond3 = or i1 %11, %or.cond.not6
  br i1 %or.cond3, label %79, label %12

12:                                               ; preds = %1
  %13 = getelementptr inbounds i8, ptr %0, i64 90
  %14 = load i8, ptr %13, align 2
  %15 = and i8 %14, 1
  %.not = icmp eq i8 %15, 0
  br i1 %.not, label %16, label %79

16:                                               ; preds = %12
  %17 = getelementptr inbounds i8, ptr %0, i64 32
  %18 = load ptr, ptr %17, align 8
  %19 = getelementptr inbounds i8, ptr %18, i64 8
  %20 = load ptr, ptr %19, align 8
  %21 = load ptr, ptr %20, align 8
  %22 = icmp eq ptr %21, null
  br i1 %22, label %23, label %_ZN13IdealLoopTree4tailEv.exit

23:                                               ; preds = %16
  %24 = getelementptr inbounds i8, ptr %0, i64 40
  %25 = load ptr, ptr %24, align 8
  %26 = getelementptr inbounds i8, ptr %18, i64 40
  %27 = load i32, ptr %26, align 8
  %28 = getelementptr inbounds i8, ptr %25, i64 32
  %29 = load i32, ptr %28, align 8
  %30 = icmp ugt i32 %29, %27
  br i1 %30, label %31, label %_ZNK14PhaseIdealLoop25get_ctrl_no_update_helperEPK4Node.exit.i.i.i

31:                                               ; preds = %23
  %32 = getelementptr inbounds i8, ptr %25, i64 40
  %33 = load ptr, ptr %32, align 8
  %34 = zext i32 %27 to i64
  %35 = getelementptr inbounds ptr, ptr %33, i64 %34
  %36 = load ptr, ptr %35, align 8
  %37 = ptrtoint ptr %36 to i64
  %38 = and i64 %37, -2
  %39 = inttoptr i64 %38 to ptr
  br label %_ZNK14PhaseIdealLoop25get_ctrl_no_update_helperEPK4Node.exit.i.i.i

_ZNK14PhaseIdealLoop25get_ctrl_no_update_helperEPK4Node.exit.i.i.i: ; preds = %31, %23
  %40 = phi ptr [ %39, %31 ], [ null, %23 ]
  %41 = getelementptr inbounds i8, ptr %40, i64 8
  %42 = load ptr, ptr %41, align 8
  %43 = load ptr, ptr %42, align 8
  %.not.i.i.i = icmp eq ptr %43, null
  br i1 %.not.i.i.i, label %.preheader.i.i.i, label %_ZNK14PhaseIdealLoop18get_ctrl_no_updateEPK4Node.exit.i.i

.preheader.i.i.i:                                 ; preds = %_ZNK14PhaseIdealLoop25get_ctrl_no_update_helperEPK4Node.exit.i.i.i
  %44 = getelementptr inbounds i8, ptr %25, i64 40
  %45 = load ptr, ptr %44, align 8
  br label %46

46:                                               ; preds = %_ZNK14PhaseIdealLoop25get_ctrl_no_update_helperEPK4Node.exit8.i.i.i, %.preheader.i.i.i
  %.0.i.i.i = phi ptr [ %57, %_ZNK14PhaseIdealLoop25get_ctrl_no_update_helperEPK4Node.exit8.i.i.i ], [ %40, %.preheader.i.i.i ]
  %47 = getelementptr inbounds i8, ptr %.0.i.i.i, i64 40
  %48 = load i32, ptr %47, align 8
  %49 = icmp ugt i32 %29, %48
  br i1 %49, label %50, label %_ZNK14PhaseIdealLoop25get_ctrl_no_update_helperEPK4Node.exit8.i.i.i

50:                                               ; preds = %46
  %51 = zext i32 %48 to i64
  %52 = getelementptr inbounds ptr, ptr %45, i64 %51
  %53 = load ptr, ptr %52, align 8
  %54 = ptrtoint ptr %53 to i64
  %55 = and i64 %54, -2
  %56 = inttoptr i64 %55 to ptr
  br label %_ZNK14PhaseIdealLoop25get_ctrl_no_update_helperEPK4Node.exit8.i.i.i

_ZNK14PhaseIdealLoop25get_ctrl_no_update_helperEPK4Node.exit8.i.i.i: ; preds = %50, %46
  %57 = phi ptr [ %56, %50 ], [ null, %46 ]
  %58 = getelementptr inbounds i8, ptr %57, i64 8
  %59 = load ptr, ptr %58, align 8
  %60 = load ptr, ptr %59, align 8
  %.not7.i.i.i = icmp eq ptr %60, null
  br i1 %.not7.i.i.i, label %46, label %61, !llvm.loop !8

61:                                               ; preds = %_ZNK14PhaseIdealLoop25get_ctrl_no_update_helperEPK4Node.exit8.i.i.i
  %62 = getelementptr inbounds i8, ptr %57, i64 44
  %63 = load i32, ptr %62, align 4
  %64 = and i32 %63, 7
  %65 = icmp eq i32 %64, 5
  %spec.select.i.i.i = select i1 %65, ptr %60, ptr %57
  br label %_ZNK14PhaseIdealLoop18get_ctrl_no_updateEPK4Node.exit.i.i

_ZNK14PhaseIdealLoop18get_ctrl_no_updateEPK4Node.exit.i.i: ; preds = %61, %_ZNK14PhaseIdealLoop25get_ctrl_no_update_helperEPK4Node.exit.i.i.i
  %.1.i.i.i = phi ptr [ %40, %_ZNK14PhaseIdealLoop25get_ctrl_no_update_helperEPK4Node.exit.i.i.i ], [ %spec.select.i.i.i, %61 ]
  br i1 %30, label %_ZN14PhaseIdealLoop8get_ctrlEPK4Node.exit.i, label %66

66:                                               ; preds = %_ZNK14PhaseIdealLoop18get_ctrl_no_updateEPK4Node.exit.i.i
  %67 = getelementptr inbounds i8, ptr %25, i64 24
  tail call void @_ZN10Node_Array4growEj(ptr noundef nonnull align 8 dereferenceable(24) %67, i32 noundef %27) #8
  br label %_ZN14PhaseIdealLoop8get_ctrlEPK4Node.exit.i

_ZN14PhaseIdealLoop8get_ctrlEPK4Node.exit.i:      ; preds = %66, %_ZNK14PhaseIdealLoop18get_ctrl_no_updateEPK4Node.exit.i.i
  %68 = ptrtoint ptr %.1.i.i.i to i64
  %69 = add nsw i64 %68, 1
  %70 = inttoptr i64 %69 to ptr
  %71 = getelementptr inbounds i8, ptr %25, i64 40
  %72 = load ptr, ptr %71, align 8
  %73 = zext i32 %27 to i64
  %74 = getelementptr inbounds ptr, ptr %72, i64 %73
  store ptr %70, ptr %74, align 8
  store ptr %.1.i.i.i, ptr %17, align 8
  br label %_ZN13IdealLoopTree4tailEv.exit

_ZN13IdealLoopTree4tailEv.exit:                   ; preds = %16, %_ZN14PhaseIdealLoop8get_ctrlEPK4Node.exit.i
  %75 = phi ptr [ %.1.i.i.i, %_ZN14PhaseIdealLoop8get_ctrlEPK4Node.exit.i ], [ %18, %16 ]
  %76 = getelementptr inbounds i8, ptr %75, i64 16
  %77 = load ptr, ptr %76, align 8
  %78 = icmp ne ptr %77, null
  br label %79

79:                                               ; preds = %_ZN13IdealLoopTree4tailEv.exit, %12, %1
  %80 = phi i1 [ false, %12 ], [ false, %1 ], [ %78, %_ZN13IdealLoopTree4tailEv.exit ]
  ret i1 %80
}